target datalayout = "e-m:e-p270:32:32-p271:32:32-p272:64:64-i64:64-i128:128-f80:128-n8:16:32:64-S128"
target triple = "x86_64-pc-linux-gnu"

%struct.reassembly_table = type { ptr, ptr, ptr, ptr, ptr }
%struct.reassembly_table_functions = type { ptr, ptr, ptr, ptr, ptr, ptr }

@.str.179 = private unnamed_addr constant [15 x i8] c"P_Mul (ACP142)\00", align 1
@.str.180 = private unnamed_addr constant [6 x i8] c"P_MUL\00", align 1
@.str.181 = private unnamed_addr constant [6 x i8] c"p_mul\00", align 1
@proto_p_mul = internal global i32 0, align 4
@p_mul_handle = internal global ptr null, align 8
@p_mul_reassembly_table = internal global %struct.reassembly_table zeroinitializer, align 8
@addresses_reassembly_table_functions = external constant %struct.reassembly_table_functions, align 8
@p_mul_id_hash_table = internal global ptr null, align 8
@.str.182 = private unnamed_addr constant [6 x i8] c"tport\00", align 1
@.str.183 = private unnamed_addr constant [6 x i8] c"rport\00", align 1
@.str.184 = private unnamed_addr constant [6 x i8] c"dport\00", align 1
@.str.185 = private unnamed_addr constant [6 x i8] c"aport\00", align 1
@.str.186 = private unnamed_addr constant [11 x i8] c"reassemble\00", align 1
@.str.187 = private unnamed_addr constant [36 x i8] c"Reassemble fragmented P_Mul packets\00", align 1
@p_mul_reassemble = internal global i8 1, align 1
@.str.188 = private unnamed_addr constant [15 x i8] c"relative_msgid\00", align 1
@.str.189 = private unnamed_addr constant [24 x i8] c"Use relative Message ID\00", align 1
@.str.190 = private unnamed_addr constant [81 x i8] c"Make the P_Mul dissector use relative message id number instead of absolute ones\00", align 1
@use_relative_msgid = internal global i8 1, align 1
@.str.191 = private unnamed_addr constant [17 x i8] c"seq_ack_analysis\00", align 1
@.str.192 = private unnamed_addr constant [17 x i8] c"SEQ/ACK Analysis\00", align 1
@.str.193 = private unnamed_addr constant [44 x i8] c"Calculate sequence/acknowledgement analysis\00", align 1
@use_seq_ack_analysis = internal global i8 1, align 1
@.str.194 = private unnamed_addr constant [7 x i8] c"decode\00", align 1
@.str.195 = private unnamed_addr constant [19 x i8] c"Decode Data PDU as\00", align 1
@.str.196 = private unnamed_addr constant [28 x i8] c"Type of content in Data_PDU\00", align 1
@decode_option = internal global i32 0, align 4

; Function Attrs: null_pointer_is_valid sspstrong uwtable
define hidden void @proto_register_p_mul() #0 {
  %1 = alloca ptr, align 8
  %2 = alloca ptr, align 8
  call void @llvm.lifetime.start.p0(i64 8, ptr %1) #15
  call void @llvm.lifetime.start.p0(i64 8, ptr %2) #15
  %3 = call i32 @proto_register_protocol(ptr noundef @.str.179, ptr noundef @.str.180, ptr noundef @.str.181)
  store i32 %3, ptr @proto_p_mul, align 4
  %4 = load i32, ptr @proto_p_mul, align 4
  %5 = call ptr @register_dissector(ptr noundef @.str.181, ptr noundef @dissect_p_mul, i32 noundef %4)
  store ptr %5, ptr @p_mul_handle, align 8
  %6 = load i32, ptr @proto_p_mul, align 4
  call void @proto_register_field_array(i32 noundef %6, ptr noundef @proto_register_p_mul.hf, i32 noundef 68)
  call void @proto_register_subtree_array(ptr noundef @proto_register_p_mul.ett, i32 noundef 11)
  %7 = load i32, ptr @proto_p_mul, align 4
  %8 = call ptr @expert_register_protocol(i32 noundef %7)
  store ptr %8, ptr %2, align 8
  %9 = load ptr, ptr %2, align 8
  call void @expert_register_field_array(ptr noundef %9, ptr noundef @proto_register_p_mul.ei, i32 noundef 14)
  call void @register_init_routine(ptr noundef @p_mul_init_routine)
  call void @reassembly_table_register(ptr noundef @p_mul_reassembly_table, ptr noundef @addresses_reassembly_table_functions)
  %10 = call ptr @wmem_epan_scope()
  %11 = call ptr @wmem_file_scope()
  %12 = call noalias ptr @wmem_map_new_autoreset(ptr noundef %10, ptr noundef %11, ptr noundef @p_mul_id_hash, ptr noundef @p_mul_id_hash_equal)
  store ptr %12, ptr @p_mul_id_hash_table, align 8
  %13 = load i32, ptr @proto_p_mul, align 4
  %14 = call ptr @prefs_register_protocol(i32 noundef %13, ptr noundef null)
  store ptr %14, ptr %1, align 8
  %15 = load ptr, ptr %1, align 8
  call void @prefs_register_obsolete_preference(ptr noundef %15, ptr noundef @.str.182)
  %16 = load ptr, ptr %1, align 8
  call void @prefs_register_obsolete_preference(ptr noundef %16, ptr noundef @.str.183)
  %17 = load ptr, ptr %1, align 8
  call void @prefs_register_obsolete_preference(ptr noundef %17, ptr noundef @.str.184)
  %18 = load ptr, ptr %1, align 8
  call void @prefs_register_obsolete_preference(ptr noundef %18, ptr noundef @.str.185)
  %19 = load ptr, ptr %1, align 8
  call void @prefs_register_bool_preference(ptr noundef %19, ptr noundef @.str.186, ptr noundef @.str.187, ptr noundef @.str.187, ptr noundef @p_mul_reassemble)
  %20 = load ptr, ptr %1, align 8
  call void @prefs_register_bool_preference(ptr noundef %20, ptr noundef @.str.188, ptr noundef @.str.189, ptr noundef @.str.190, ptr noundef @use_relative_msgid)
  %21 = load ptr, ptr %1, align 8
  call void @prefs_register_bool_preference(ptr noundef %21, ptr noundef @.str.191, ptr noundef @.str.192, ptr noundef @.str.193, ptr noundef @use_seq_ack_analysis)
  %22 = load ptr, ptr %1, align 8
  call void @prefs_register_enum_preference(ptr noundef %22, ptr noundef @.str.194, ptr noundef @.str.195, ptr noundef @.str.196, ptr noundef @decode_option, ptr noundef @decode_options, i1 noundef zeroext false)
  call void @llvm.lifetime.end.p0(i64 8, ptr %2) #15
  call void @llvm.lifetime.end.p0(i64 8, ptr %1) #15
  ret void
}