; Function Attrs: null_pointer_is_valid sspstrong uwtable
define hidden void @proto_register_p_mul() local_unnamed_addr #0 {
  %1 = tail call i32 @proto_register_protocol(ptr noundef nonnull @.str.179, ptr noundef nonnull @.str.180, ptr noundef nonnull @.str.181)
  store i32 %1, ptr @proto_p_mul, align 4
  %2 = tail call ptr @register_dissector(ptr noundef nonnull @.str.181, ptr noundef nonnull @dissect_p_mul, i32 noundef %1)
  store ptr %2, ptr @p_mul_handle, align 8
  %3 = load i32, ptr @proto_p_mul, align 4
  tail call void @proto_register_field_array(i32 noundef %3, ptr noundef nonnull @proto_register_p_mul.hf, i32 noundef 68)
  tail call void @proto_register_subtree_array(ptr noundef nonnull @proto_register_p_mul.ett, i32 noundef 11)
  %4 = load i32, ptr @proto_p_mul, align 4
  %5 = tail call ptr @expert_register_protocol(i32 noundef %4)
  tail call void @expert_register_field_array(ptr noundef %5, ptr noundef nonnull @proto_register_p_mul.ei, i32 noundef 14)
  tail call void @register_init_routine(ptr noundef nonnull @p_mul_init_routine)
  tail call void @reassembly_table_register(ptr noundef nonnull @p_mul_reassembly_table, ptr noundef nonnull @addresses_reassembly_table_functions)
  %6 = tail call ptr @wmem_epan_scope()
  %7 = tail call ptr @wmem_file_scope()
  %8 = tail call noalias ptr @wmem_map_new_autoreset(ptr noundef %6, ptr noundef %7, ptr noundef nonnull @p_mul_id_hash, ptr noundef nonnull @p_mul_id_hash_equal)
  store ptr %8, ptr @p_mul_id_hash_table, align 8
  %9 = load i32, ptr @proto_p_mul, align 4
  %10 = tail call ptr @prefs_register_protocol(i32 noundef %9, ptr noundef null)
  tail call void @prefs_register_obsolete_preference(ptr noundef %10, ptr noundef nonnull @.str.182)
  tail call void @prefs_register_obsolete_preference(ptr noundef %10, ptr noundef nonnull @.str.183)
  tail call void @prefs_register_obsolete_preference(ptr noundef %10, ptr noundef nonnull @.str.184)
  tail call void @prefs_register_obsolete_preference(ptr noundef %10, ptr noundef nonnull @.str.185)
  tail call void @prefs_register_bool_preference(ptr noundef %10, ptr noundef nonnull @.str.186, ptr noundef nonnull @.str.187, ptr noundef nonnull @.str.187, ptr noundef nonnull @p_mul_reassemble)
  tail call void @prefs_register_bool_preference(ptr noundef %10, ptr noundef nonnull @.str.188, ptr noundef nonnull @.str.189, ptr noundef nonnull @.str.190, ptr noundef nonnull @use_relative_msgid)
  tail call void @prefs_register_bool_preference(ptr noundef %10, ptr noundef nonnull @.str.191, ptr noundef nonnull @.str.192, ptr noundef nonnull @.str.193, ptr noundef nonnull @use_seq_ack_analysis)
  tail call void @prefs_register_enum_preference(ptr noundef %10, ptr noundef nonnull @.str.194, ptr noundef nonnull @.str.195, ptr noundef nonnull @.str.196, ptr noundef nonnull @decode_option, ptr noundef nonnull @decode_options, i1 noundef zeroext false)
  ret void
}